target datalayout = "e-m:e-p270:32:32-p271:32:32-p272:64:64-i64:64-i128:128-f80:128-n8:16:32:64-S128"
target triple = "x86_64-unknown-linux-gnu"

%"class.base::Value" = type <{ ptr, i32, [4 x i8] }>
%"class.base::FundamentalValue" = type { %"class.base::Value.base", %union.anon.2 }
%"class.base::Value.base" = type <{ ptr, i32 }>
%union.anon.2 = type { double }

@_ZN4base16FundamentalValueC1Eb = dso_local unnamed_addr alias void (ptr, i1), ptr @_ZN4base16FundamentalValueC2Eb
@_ZN4base16FundamentalValueC1Ei = dso_local unnamed_addr alias void (ptr, i32), ptr @_ZN4base16FundamentalValueC2Ei
@_ZN4base16FundamentalValueC1Ed = dso_local unnamed_addr alias void (ptr, double), ptr @_ZN4base16FundamentalValueC2Ed

; Function Attrs: mustprogress nounwind uwtable
define linkonce_odr dso_local noundef i32 @_ZNK4base5Value7GetTypeEv(ptr noundef nonnull align 8 dereferenceable(12) %this) #0 comdat align 2 {
entry:
  %this.addr = alloca ptr, align 8
  store ptr %this, ptr %this.addr, align 8
  %this1 = load ptr, ptr %this.addr, align 8
  %type_ = getelementptr inbounds %"class.base::Value", ptr %this1, i32 0, i32 1
  %0 = load i32, ptr %type_, align 8
  ret i32 %0
}

; Function Attrs: mustprogress uwtable
define dso_local noundef ptr @_ZNK4base16FundamentalValue8DeepCopyEv(ptr noundef nonnull align 8 dereferenceable(24) %this) unnamed_addr #2 align 2 personality ptr @__gxx_personality_v0 {
entry:
  %retval = alloca ptr, align 8
  %this.addr = alloca ptr, align 8
  %exn.slot = alloca ptr, align 8
  %ehselector.slot = alloca i32, align 4
  store ptr %this, ptr %this.addr, align 8
  %this1 = load ptr, ptr %this.addr, align 8
  %call = call noundef i32 @_ZNK4base5Value7GetTypeEv(ptr noundef nonnull align 8 dereferenceable(12) %this1)
  switch i32 %call, label %sw.default [
    i32 1, label %sw.bb
    i32 2, label %sw.bb3
    i32 3, label %sw.bb7
  ]

sw.bb:                                            ; preds = %entry
  %call2 = call noalias noundef nonnull ptr @_Znwm(i64 noundef 24) #15
  %0 = getelementptr inbounds %"class.base::FundamentalValue", ptr %this1, i32 0, i32 1
  %1 = load i8, ptr %0, align 8
  %tobool = trunc i8 %1 to i1
  invoke void @_ZN4base16FundamentalValueC1Eb(ptr noundef nonnull align 8 dereferenceable(24) %call2, i1 noundef zeroext %tobool)
          to label %invoke.cont unwind label %lpad

invoke.cont:                                      ; preds = %sw.bb
  store ptr %call2, ptr %retval, align 8
  br label %return

lpad:                                             ; preds = %sw.bb
  %2 = landingpad { ptr, i32 }
          cleanup
  %3 = extractvalue { ptr, i32 } %2, 0
  store ptr %3, ptr %exn.slot, align 8
  %4 = extractvalue { ptr, i32 } %2, 1
  store i32 %4, ptr %ehselector.slot, align 4
  call void @_ZdlPv(ptr noundef %call2) #14
  br label %eh.resume

sw.bb3:                                           ; preds = %entry
  %call4 = call noalias noundef nonnull ptr @_Znwm(i64 noundef 24) #15
  %5 = getelementptr inbounds %"class.base::FundamentalValue", ptr %this1, i32 0, i32 1
  %6 = load i32, ptr %5, align 8
  invoke void @_ZN4base16FundamentalValueC1Ei(ptr noundef nonnull align 8 dereferenceable(24) %call4, i32 noundef %6)
          to label %invoke.cont6 unwind label %lpad5

invoke.cont6:                                     ; preds = %sw.bb3
  store ptr %call4, ptr %retval, align 8
  br label %return

lpad5:                                            ; preds = %sw.bb3
  %7 = landingpad { ptr, i32 }
          cleanup
  %8 = extractvalue { ptr, i32 } %7, 0
  store ptr %8, ptr %exn.slot, align 8
  %9 = extractvalue { ptr, i32 } %7, 1
  store i32 %9, ptr %ehselector.slot, align 4
  call void @_ZdlPv(ptr noundef %call4) #14
  br label %eh.resume

sw.bb7:                                           ; preds = %entry
  %call8 = call noalias noundef nonnull ptr @_Znwm(i64 noundef 24) #15
  %10 = getelementptr inbounds %"class.base::FundamentalValue", ptr %this1, i32 0, i32 1
  %11 = load double, ptr %10, align 8
  invoke void @_ZN4base16FundamentalValueC1Ed(ptr noundef nonnull align 8 dereferenceable(24) %call8, double noundef %11)
          to label %invoke.cont10 unwind label %lpad9

invoke.cont10:                                    ; preds = %sw.bb7
  store ptr %call8, ptr %retval, align 8
  br label %return

lpad9:                                            ; preds = %sw.bb7
  %12 = landingpad { ptr, i32 }
          cleanup
  %13 = extractvalue { ptr, i32 } %12, 0
  store ptr %13, ptr %exn.slot, align 8
  %14 = extractvalue { ptr, i32 } %12, 1
  store i32 %14, ptr %ehselector.slot, align 4
  call void @_ZdlPv(ptr noundef %call8) #14
  br label %eh.resume

sw.default:                                       ; preds = %entry
  store ptr null, ptr %retval, align 8
  br label %return

return:                                           ; preds = %sw.default, %invoke.cont10, %invoke.cont6, %invoke.cont
  %15 = load ptr, ptr %retval, align 8
  ret ptr %15

eh.resume:                                        ; preds = %lpad9, %lpad5, %lpad
  %exn = load ptr, ptr %exn.slot, align 8
  %sel = load i32, ptr %ehselector.slot, align 4
  %lpad.val = insertvalue { ptr, i32 } poison, ptr %exn, 0
  %lpad.val11 = insertvalue { ptr, i32 } %lpad.val, i32 %sel, 1
  resume { ptr, i32 } %lpad.val11
}