; Function Attrs: mustprogress uwtable
define dso_local noalias noundef ptr @_ZNK4base16FundamentalValue8DeepCopyEv(ptr nocapture noundef nonnull readonly align 8 dereferenceable(24) %this) unnamed_addr #3 align 2 personality ptr @__gxx_personality_v0 {
entry:
  %type_.i = getelementptr inbounds i8, ptr %this, i64 8
  %0 = load i32, ptr %type_.i, align 8
  switch i32 %0, label %return [
    i32 1, label %sw.bb
    i32 2, label %sw.bb3
    i32 3, label %sw.bb7
  ]

sw.bb:                                            ; preds = %entry
  %call2 = tail call noalias noundef nonnull dereferenceable(24) ptr @_Znwm(i64 noundef 24) #25
  %1 = getelementptr inbounds i8, ptr %this, i64 16
  %2 = load i8, ptr %1, align 8
  %3 = and i8 %2, 1
  %type_.i.i = getelementptr inbounds i8, ptr %call2, i64 8
  store i32 1, ptr %type_.i.i, align 8
  store ptr getelementptr inbounds ({ [17 x ptr] }, ptr @_ZTVN4base16FundamentalValueE, i64 0, i32 0, i64 2), ptr %call2, align 8
  %4 = getelementptr inbounds i8, ptr %call2, i64 16
  store i8 %3, ptr %4, align 8
  br label %return

sw.bb3:                                           ; preds = %entry
  %call4 = tail call noalias noundef nonnull dereferenceable(24) ptr @_Znwm(i64 noundef 24) #25
  %5 = getelementptr inbounds i8, ptr %this, i64 16
  %6 = load i32, ptr %5, align 8
  %type_.i.i1 = getelementptr inbounds i8, ptr %call4, i64 8
  store i32 2, ptr %type_.i.i1, align 8
  store ptr getelementptr inbounds ({ [17 x ptr] }, ptr @_ZTVN4base16FundamentalValueE, i64 0, i32 0, i64 2), ptr %call4, align 8
  %7 = getelementptr inbounds i8, ptr %call4, i64 16
  store i32 %6, ptr %7, align 8
  br label %return

sw.bb7:                                           ; preds = %entry
  %call8 = tail call noalias noundef nonnull dereferenceable(24) ptr @_Znwm(i64 noundef 24) #25
  %8 = getelementptr inbounds i8, ptr %this, i64 16
  %9 = load double, ptr %8, align 8
  %type_.i.i2 = getelementptr inbounds i8, ptr %call8, i64 8
  store i32 3, ptr %type_.i.i2, align 8
  store ptr getelementptr inbounds ({ [17 x ptr] }, ptr @_ZTVN4base16FundamentalValueE, i64 0, i32 0, i64 2), ptr %call8, align 8
  %10 = tail call double @llvm.fabs.f64(double %9)
  %11 = fcmp ueq double %10, 0x7FF0000000000000
  %storemerge.i = select i1 %11, double 0.000000e+00, double %9
  %12 = getelementptr inbounds i8, ptr %call8, i64 16
  store double %storemerge.i, ptr %12, align 8
  br label %return

return:                                           ; preds = %sw.bb7, %entry, %sw.bb3, %sw.bb
  %retval.0 = phi ptr [ %call4, %sw.bb3 ], [ %call2, %sw.bb ], [ %call8, %sw.bb7 ], [ null, %entry ]
  ret ptr %retval.0
}